target datalayout = "e-m:e-p270:32:32-p271:32:32-p272:64:64-i64:64-i128:128-f80:128-n8:16:32:64-S128"
target triple = "x86_64-pc-linux-gnu"

%struct.jpeg_compress_struct = type { ptr, ptr, ptr, ptr, i32, i32, ptr, i32, i32, i32, i32, double, i32, i32, i32, ptr, [4 x ptr], [4 x ptr], [4 x ptr], [16 x i8], [16 x i8], [16 x i8], i32, ptr, i32, i32, i32, i32, i32, i32, i32, i32, i32, i8, i8, i8, i16, i16, i32, i32, i32, i32, i32, i32, i32, [4 x ptr], i32, i32, i32, [10 x i32], i32, i32, i32, i32, ptr, ptr, ptr, ptr, ptr, ptr, ptr, ptr, ptr, ptr, i32 }
%struct.jpeg_component_info = type { i32, i32, i32, i32, i32, i32, i32, i32, i32, i32, i32, i32, i32, i32, i32, i32, i32, i32, i32, ptr, ptr }
%struct.jpeg_comp_master = type { ptr, ptr, ptr, i32, i32, i32 }

; Function Attrs: nounwind uwtable
define internal void @expand_right_edge(ptr noundef %0, i32 noundef %1, i32 noundef %2, i32 noundef %3) #0 {
  %5 = alloca ptr, align 8
  %6 = alloca i32, align 4
  %7 = alloca i32, align 4
  %8 = alloca i32, align 4
  %9 = alloca ptr, align 8
  %10 = alloca i8, align 1
  %11 = alloca i32, align 4
  %12 = alloca i32, align 4
  %13 = alloca i32, align 4
  store ptr %0, ptr %5, align 8
  store i32 %1, ptr %6, align 4
  store i32 %2, ptr %7, align 4
  store i32 %3, ptr %8, align 4
  %14 = load i32, ptr %8, align 4
  %15 = load i32, ptr %7, align 4
  %16 = sub i32 %14, %15
  store i32 %16, ptr %13, align 4
  %17 = load i32, ptr %13, align 4
  %18 = icmp sgt i32 %17, 0
  br i1 %18, label %19, label %52

19:                                               ; preds = %4
  store i32 0, ptr %12, align 4
  br label %20

20:                                               ; preds = %48, %19
  %21 = load i32, ptr %12, align 4
  %22 = load i32, ptr %6, align 4
  %23 = icmp slt i32 %21, %22
  br i1 %23, label %24, label %51

24:                                               ; preds = %20
  %25 = load ptr, ptr %5, align 8
  %26 = load i32, ptr %12, align 4
  %27 = sext i32 %26 to i64
  %28 = getelementptr inbounds ptr, ptr %25, i64 %27
  %29 = load ptr, ptr %28, align 8
  %30 = load i32, ptr %7, align 4
  %31 = zext i32 %30 to i64
  %32 = getelementptr inbounds i8, ptr %29, i64 %31
  store ptr %32, ptr %9, align 8
  %33 = load ptr, ptr %9, align 8
  %34 = getelementptr inbounds i8, ptr %33, i64 -1
  %35 = load i8, ptr %34, align 1
  store i8 %35, ptr %10, align 1
  %36 = load i32, ptr %13, align 4
  store i32 %36, ptr %11, align 4
  br label %37

37:                                               ; preds = %44, %24
  %38 = load i32, ptr %11, align 4
  %39 = icmp sgt i32 %38, 0
  br i1 %39, label %40, label %47

40:                                               ; preds = %37
  %41 = load i8, ptr %10, align 1
  %42 = load ptr, ptr %9, align 8
  %43 = getelementptr inbounds i8, ptr %42, i32 1
  store ptr %43, ptr %9, align 8
  store i8 %41, ptr %42, align 1
  br label %44

44:                                               ; preds = %40
  %45 = load i32, ptr %11, align 4
  %46 = add nsw i32 %45, -1
  store i32 %46, ptr %11, align 4
  br label %37, !llvm.loop !19

47:                                               ; preds = %37
  br label %48

48:                                               ; preds = %47
  %49 = load i32, ptr %12, align 4
  %50 = add nsw i32 %49, 1
  store i32 %50, ptr %12, align 4
  br label %20, !llvm.loop !20

51:                                               ; preds = %20
  br label %52

52:                                               ; preds = %51, %4
  ret void
}

; Function Attrs: nounwind uwtable
define internal void @int_downsample(ptr noundef %0, ptr noundef %1, ptr noundef %2, ptr noundef %3) #0 {
  %5 = alloca ptr, align 8
  %6 = alloca ptr, align 8
  %7 = alloca ptr, align 8
  %8 = alloca ptr, align 8
  %9 = alloca i32, align 4
  %10 = alloca i32, align 4
  %11 = alloca i32, align 4
  %12 = alloca i32, align 4
  %13 = alloca i32, align 4
  %14 = alloca i32, align 4
  %15 = alloca i32, align 4
  %16 = alloca i32, align 4
  %17 = alloca i32, align 4
  %18 = alloca i32, align 4
  %19 = alloca i32, align 4
  %20 = alloca i32, align 4
  %21 = alloca ptr, align 8
  %22 = alloca ptr, align 8
  %23 = alloca i64, align 8
  store ptr %0, ptr %5, align 8
  store ptr %1, ptr %6, align 8
  store ptr %2, ptr %7, align 8
  store ptr %3, ptr %8, align 8
  %24 = load ptr, ptr %5, align 8
  %25 = getelementptr inbounds %struct.jpeg_compress_struct, ptr %24, i32 0, i32 54
  %26 = load ptr, ptr %25, align 8
  %27 = getelementptr inbounds %struct.jpeg_comp_master, ptr %26, i32 0, i32 5
  %28 = load i32, ptr %27, align 8
  %29 = icmp ne i32 %28, 0
  %30 = select i1 %29, i32 1, i32 8
  store i32 %30, ptr %19, align 4
  %31 = load ptr, ptr %6, align 8
  %32 = getelementptr inbounds %struct.jpeg_component_info, ptr %31, i32 0, i32 7
  %33 = load i32, ptr %32, align 4
  %34 = load i32, ptr %19, align 4
  %35 = mul i32 %33, %34
  store i32 %35, ptr %20, align 4
  %36 = load ptr, ptr %5, align 8
  %37 = getelementptr inbounds %struct.jpeg_compress_struct, ptr %36, i32 0, i32 41
  %38 = load i32, ptr %37, align 8
  %39 = load ptr, ptr %6, align 8
  %40 = getelementptr inbounds %struct.jpeg_component_info, ptr %39, i32 0, i32 2
  %41 = load i32, ptr %40, align 8
  %42 = sdiv i32 %38, %41
  store i32 %42, ptr %11, align 4
  %43 = load ptr, ptr %5, align 8
  %44 = getelementptr inbounds %struct.jpeg_compress_struct, ptr %43, i32 0, i32 42
  %45 = load i32, ptr %44, align 4
  %46 = load ptr, ptr %6, align 8
  %47 = getelementptr inbounds %struct.jpeg_component_info, ptr %46, i32 0, i32 3
  %48 = load i32, ptr %47, align 4
  %49 = sdiv i32 %45, %48
  store i32 %49, ptr %12, align 4
  %50 = load i32, ptr %11, align 4
  %51 = load i32, ptr %12, align 4
  %52 = mul nsw i32 %50, %51
  store i32 %52, ptr %13, align 4
  %53 = load i32, ptr %13, align 4
  %54 = sdiv i32 %53, 2
  store i32 %54, ptr %14, align 4
  %55 = load ptr, ptr %7, align 8
  %56 = load ptr, ptr %5, align 8
  %57 = getelementptr inbounds %struct.jpeg_compress_struct, ptr %56, i32 0, i32 42
  %58 = load i32, ptr %57, align 4
  %59 = load ptr, ptr %5, align 8
  %60 = getelementptr inbounds %struct.jpeg_compress_struct, ptr %59, i32 0, i32 7
  %61 = load i32, ptr %60, align 8
  %62 = load i32, ptr %20, align 4
  %63 = load i32, ptr %11, align 4
  %64 = mul i32 %62, %63
  call void @expand_right_edge(ptr noundef %55, i32 noundef %58, i32 noundef %61, i32 noundef %64)
  store i32 0, ptr %9, align 4
  store i32 0, ptr %10, align 4
  br label %65

65:                                               ; preds = %136, %4
  %66 = load i32, ptr %10, align 4
  %67 = load ptr, ptr %6, align 8
  %68 = getelementptr inbounds %struct.jpeg_component_info, ptr %67, i32 0, i32 3
  %69 = load i32, ptr %68, align 4
  %70 = icmp slt i32 %66, %69
  br i1 %70, label %71, label %139

71:                                               ; preds = %65
  %72 = load ptr, ptr %8, align 8
  %73 = load i32, ptr %10, align 4
  %74 = sext i32 %73 to i64
  %75 = getelementptr inbounds ptr, ptr %72, i64 %74
  %76 = load ptr, ptr %75, align 8
  store ptr %76, ptr %22, align 8
  store i32 0, ptr %17, align 4
  store i32 0, ptr %18, align 4
  br label %77

77:                                               ; preds = %126, %71
  %78 = load i32, ptr %17, align 4
  %79 = load i32, ptr %20, align 4
  %80 = icmp ult i32 %78, %79
  br i1 %80, label %81, label %132

81:                                               ; preds = %77
  store i64 0, ptr %23, align 8
  store i32 0, ptr %16, align 4
  br label %82

82:                                               ; preds = %112, %81
  %83 = load i32, ptr %16, align 4
  %84 = load i32, ptr %12, align 4
  %85 = icmp slt i32 %83, %84
  br i1 %85, label %86, label %115

86:                                               ; preds = %82
  %87 = load ptr, ptr %7, align 8
  %88 = load i32, ptr %9, align 4
  %89 = load i32, ptr %16, align 4
  %90 = add nsw i32 %88, %89
  %91 = sext i32 %90 to i64
  %92 = getelementptr inbounds ptr, ptr %87, i64 %91
  %93 = load ptr, ptr %92, align 8
  %94 = load i32, ptr %18, align 4
  %95 = zext i32 %94 to i64
  %96 = getelementptr inbounds i8, ptr %93, i64 %95
  store ptr %96, ptr %21, align 8
  store i32 0, ptr %15, align 4
  br label %97

97:                                               ; preds = %108, %86
  %98 = load i32, ptr %15, align 4
  %99 = load i32, ptr %11, align 4
  %100 = icmp slt i32 %98, %99
  br i1 %100, label %101, label %111

101:                                              ; preds = %97
  %102 = load ptr, ptr %21, align 8
  %103 = getelementptr inbounds i8, ptr %102, i32 1
  store ptr %103, ptr %21, align 8
  %104 = load i8, ptr %102, align 1
  %105 = zext i8 %104 to i64
  %106 = load i64, ptr %23, align 8
  %107 = add nsw i64 %106, %105
  store i64 %107, ptr %23, align 8
  br label %108

108:                                              ; preds = %101
  %109 = load i32, ptr %15, align 4
  %110 = add nsw i32 %109, 1
  store i32 %110, ptr %15, align 4
  br label %97, !llvm.loop !15

111:                                              ; preds = %97
  br label %112

112:                                              ; preds = %111
  %113 = load i32, ptr %16, align 4
  %114 = add nsw i32 %113, 1
  store i32 %114, ptr %16, align 4
  br label %82, !llvm.loop !16

115:                                              ; preds = %82
  %116 = load i64, ptr %23, align 8
  %117 = load i32, ptr %14, align 4
  %118 = sext i32 %117 to i64
  %119 = add nsw i64 %116, %118
  %120 = load i32, ptr %13, align 4
  %121 = sext i32 %120 to i64
  %122 = sdiv i64 %119, %121
  %123 = trunc i64 %122 to i8
  %124 = load ptr, ptr %22, align 8
  %125 = getelementptr inbounds i8, ptr %124, i32 1
  store ptr %125, ptr %22, align 8
  store i8 %123, ptr %124, align 1
  br label %126

126:                                              ; preds = %115
  %127 = load i32, ptr %17, align 4
  %128 = add i32 %127, 1
  store i32 %128, ptr %17, align 4
  %129 = load i32, ptr %11, align 4
  %130 = load i32, ptr %18, align 4
  %131 = add i32 %130, %129
  store i32 %131, ptr %18, align 4
  br label %77, !llvm.loop !17

132:                                              ; preds = %77
  %133 = load i32, ptr %12, align 4
  %134 = load i32, ptr %9, align 4
  %135 = add nsw i32 %134, %133
  store i32 %135, ptr %9, align 4
  br label %136

136:                                              ; preds = %132
  %137 = load i32, ptr %10, align 4
  %138 = add nsw i32 %137, 1
  store i32 %138, ptr %10, align 4
  br label %65, !llvm.loop !18

139:                                              ; preds = %65
  ret void
}