; Function Attrs: nofree norecurse nosync nounwind memory(readwrite, inaccessiblemem: none) uwtable
define internal void @int_downsample(ptr nocapture noundef readonly %0, ptr nocapture noundef readonly %1, ptr nocapture noundef readonly %2, ptr nocapture noundef readonly %3) #2 {
  %5 = getelementptr inbounds i8, ptr %0, i64 432
  %6 = load ptr, ptr %5, align 8
  %7 = getelementptr inbounds i8, ptr %6, i64 32
  %8 = load i32, ptr %7, align 8
  %.not = icmp eq i32 %8, 0
  %9 = getelementptr inbounds i8, ptr %1, i64 28
  %10 = load i32, ptr %9, align 4
  %11 = select i1 %.not, i32 3, i32 0
  %12 = shl i32 %10, %11
  %13 = getelementptr inbounds i8, ptr %0, i64 312
  %14 = load i32, ptr %13, align 8
  %15 = getelementptr inbounds i8, ptr %1, i64 8
  %16 = load i32, ptr %15, align 8
  %17 = sdiv i32 %14, %16
  %18 = getelementptr inbounds i8, ptr %0, i64 316
  %19 = load i32, ptr %18, align 4
  %20 = getelementptr inbounds i8, ptr %1, i64 12
  %21 = load i32, ptr %20, align 4
  %22 = sdiv i32 %19, %21
  %23 = mul nsw i32 %22, %17
  %24 = sdiv i32 %23, 2
  %25 = getelementptr inbounds i8, ptr %0, i64 48
  %26 = load i32, ptr %25, align 8
  %27 = mul i32 %17, %12
  %28 = sub i32 %27, %26
  %29 = icmp sgt i32 %28, 0
  %30 = icmp sgt i32 %19, 0
  %or.cond.i = and i1 %30, %29
  br i1 %or.cond.i, label %.lr.ph20.i, label %expand_right_edge.exit

.lr.ph20.i:                                       ; preds = %4
  %31 = zext i32 %26 to i64
  %32 = xor i32 %26, -1
  %33 = add i32 %27, %32
  %34 = zext i32 %33 to i64
  %35 = add nuw nsw i64 %34, 1
  %wide.trip.count.i = zext nneg i32 %19 to i64
  br label %.lr.ph.us.i

.lr.ph.us.i:                                      ; preds = %.lr.ph.us.i, %.lr.ph20.i
  %indvars.iv.i = phi i64 [ 0, %.lr.ph20.i ], [ %indvars.iv.next.i, %.lr.ph.us.i ]
  %36 = getelementptr inbounds ptr, ptr %2, i64 %indvars.iv.i
  %37 = load ptr, ptr %36, align 8
  %38 = getelementptr inbounds i8, ptr %37, i64 %31
  %39 = getelementptr inbounds i8, ptr %38, i64 -1
  %40 = load i8, ptr %39, align 1
  tail call void @llvm.memset.p0.i64(ptr noundef nonnull align 1 dereferenceable(1) %38, i8 %40, i64 %35, i1 false)
  %indvars.iv.next.i = add nuw nsw i64 %indvars.iv.i, 1
  %exitcond.not.i = icmp eq i64 %indvars.iv.next.i, %wide.trip.count.i
  br i1 %exitcond.not.i, label %expand_right_edge.exit.loopexit, label %.lr.ph.us.i, !llvm.loop !7

expand_right_edge.exit.loopexit:                  ; preds = %.lr.ph.us.i
  %.pre = load i32, ptr %20, align 4
  br label %expand_right_edge.exit

expand_right_edge.exit:                           ; preds = %expand_right_edge.exit.loopexit, %4
  %41 = phi i32 [ %.pre, %expand_right_edge.exit.loopexit ], [ %21, %4 ]
  %42 = icmp sgt i32 %41, 0
  br i1 %42, label %.lr.ph, label %._crit_edge68

.lr.ph:                                           ; preds = %expand_right_edge.exit
  %.not81 = icmp eq i32 %12, 0
  %43 = icmp sgt i32 %17, 0
  %44 = sext i32 %24 to i64
  %45 = sext i32 %23 to i64
  br i1 %.not81, label %._crit_edge68, label %.lr.ph.split.us

.lr.ph.split.us:                                  ; preds = %.lr.ph
  %46 = icmp sgt i32 %22, 0
  br i1 %46, label %.lr.ph.split.us.split.us, label %.lr.ph.split.us.split

.lr.ph.split.us.split.us:                         ; preds = %.lr.ph.split.us
  br i1 %43, label %.preheader.lr.ph.us.us.us.preheader, label %.lr.ph.split.us.split.us.split

.preheader.lr.ph.us.us.us.preheader:              ; preds = %.lr.ph.split.us.split.us
  %47 = zext nneg i32 %22 to i64
  br label %.preheader.lr.ph.us.us.us

.preheader.lr.ph.us.us.us:                        ; preds = %.preheader.lr.ph.us.us.us.preheader, %._crit_edge.split.us.split.us.us.us.us
  %indvars.iv96 = phi i64 [ 0, %.preheader.lr.ph.us.us.us.preheader ], [ %indvars.iv.next97, %._crit_edge.split.us.split.us.us.us.us ]
  %indvars.iv94 = phi i64 [ 0, %.preheader.lr.ph.us.us.us.preheader ], [ %indvars.iv.next95, %._crit_edge.split.us.split.us.us.us.us ]
  %48 = getelementptr inbounds ptr, ptr %3, i64 %indvars.iv96
  %49 = load ptr, ptr %48, align 8
  %invariant.gep = getelementptr inbounds ptr, ptr %2, i64 %indvars.iv94
  br label %.preheader.us.us.us.us.us

.preheader.us.us.us.us.us:                        ; preds = %._crit_edge56.split.us.us.us.us.us.us, %.preheader.lr.ph.us.us.us
  %.04260.us.us.us.us.us = phi ptr [ %49, %.preheader.lr.ph.us.us.us ], [ %62, %._crit_edge56.split.us.us.us.us.us.us ]
  %.04659.us.us.us.us.us = phi i32 [ 0, %.preheader.lr.ph.us.us.us ], [ %64, %._crit_edge56.split.us.us.us.us.us.us ]
  %.04758.us.us.us.us.us = phi i32 [ 0, %.preheader.lr.ph.us.us.us ], [ %63, %._crit_edge56.split.us.us.us.us.us.us ]
  %50 = zext i32 %.04659.us.us.us.us.us to i64
  br label %.lr.ph.us.us.us.us.us.us

.lr.ph.us.us.us.us.us.us:                         ; preds = %._crit_edge.us.us.us.us.us.us, %.preheader.us.us.us.us.us
  %indvars.iv89 = phi i64 [ %indvars.iv.next90, %._crit_edge.us.us.us.us.us.us ], [ 0, %.preheader.us.us.us.us.us ]
  %.054.us.us.us.us.us.us = phi i64 [ %57, %._crit_edge.us.us.us.us.us.us ], [ 0, %.preheader.us.us.us.us.us ]
  %gep = getelementptr inbounds ptr, ptr %invariant.gep, i64 %indvars.iv89
  %51 = load ptr, ptr %gep, align 8
  %52 = getelementptr inbounds i8, ptr %51, i64 %50
  br label %53

53:                                               ; preds = %53, %.lr.ph.us.us.us.us.us.us
  %.152.us.us.us.us.us.us = phi i64 [ %.054.us.us.us.us.us.us, %.lr.ph.us.us.us.us.us.us ], [ %57, %53 ]
  %.04351.us.us.us.us.us.us = phi ptr [ %52, %.lr.ph.us.us.us.us.us.us ], [ %54, %53 ]
  %.04950.us.us.us.us.us.us = phi i32 [ 0, %.lr.ph.us.us.us.us.us.us ], [ %58, %53 ]
  %54 = getelementptr inbounds i8, ptr %.04351.us.us.us.us.us.us, i64 1
  %55 = load i8, ptr %.04351.us.us.us.us.us.us, align 1
  %56 = zext i8 %55 to i64
  %57 = add nsw i64 %.152.us.us.us.us.us.us, %56
  %58 = add nuw nsw i32 %.04950.us.us.us.us.us.us, 1
  %exitcond.not = icmp eq i32 %58, %17
  br i1 %exitcond.not, label %._crit_edge.us.us.us.us.us.us, label %53, !llvm.loop !16

._crit_edge.us.us.us.us.us.us:                    ; preds = %53
  %indvars.iv.next90 = add nuw nsw i64 %indvars.iv89, 1
  %exitcond92.not = icmp eq i64 %indvars.iv.next90, %47
  br i1 %exitcond92.not, label %._crit_edge56.split.us.us.us.us.us.us, label %.lr.ph.us.us.us.us.us.us, !llvm.loop !17

._crit_edge56.split.us.us.us.us.us.us:            ; preds = %._crit_edge.us.us.us.us.us.us
  %59 = add nsw i64 %57, %44
  %60 = sdiv i64 %59, %45
  %61 = trunc i64 %60 to i8
  %62 = getelementptr inbounds i8, ptr %.04260.us.us.us.us.us, i64 1
  store i8 %61, ptr %.04260.us.us.us.us.us, align 1
  %63 = add nuw i32 %.04758.us.us.us.us.us, 1
  %64 = add i32 %.04659.us.us.us.us.us, %17
  %exitcond93.not = icmp eq i32 %63, %12
  br i1 %exitcond93.not, label %._crit_edge.split.us.split.us.us.us.us, label %.preheader.us.us.us.us.us, !llvm.loop !18

._crit_edge.split.us.split.us.us.us.us:           ; preds = %._crit_edge56.split.us.us.us.us.us.us
  %indvars.iv.next95 = add nuw nsw i64 %indvars.iv94, %47
  %indvars.iv.next97 = add nuw nsw i64 %indvars.iv96, 1
  %65 = load i32, ptr %20, align 4
  %66 = sext i32 %65 to i64
  %67 = icmp slt i64 %indvars.iv.next97, %66
  br i1 %67, label %.preheader.lr.ph.us.us.us, label %._crit_edge68, !llvm.loop !19

.lr.ph.split.us.split.us.split:                   ; preds = %.lr.ph.split.us.split.us
  %68 = sdiv i64 %44, %45
  %69 = trunc i64 %68 to i8
  %70 = zext i32 %12 to i64
  br label %.preheader.lr.ph.us.us

.preheader.lr.ph.us.us:                           ; preds = %.preheader.lr.ph.us.us, %.lr.ph.split.us.split.us.split
  %indvars.iv86 = phi i64 [ %indvars.iv.next87, %.preheader.lr.ph.us.us ], [ 0, %.lr.ph.split.us.split.us.split ]
  %71 = getelementptr inbounds ptr, ptr %3, i64 %indvars.iv86
  %72 = load ptr, ptr %71, align 8
  tail call void @llvm.memset.p0.i64(ptr align 1 %72, i8 %69, i64 %70, i1 false)
  %indvars.iv.next87 = add nuw nsw i64 %indvars.iv86, 1
  %73 = load i32, ptr %20, align 4
  %74 = sext i32 %73 to i64
  %75 = icmp slt i64 %indvars.iv.next87, %74
  br i1 %75, label %.preheader.lr.ph.us.us, label %._crit_edge68, !llvm.loop !19

.lr.ph.split.us.split:                            ; preds = %.lr.ph.split.us
  %76 = sdiv i64 %44, %45
  %77 = trunc i64 %76 to i8
  %78 = zext i32 %12 to i64
  br label %.preheader.lr.ph.us

.preheader.lr.ph.us:                              ; preds = %.preheader.lr.ph.us, %.lr.ph.split.us.split
  %indvars.iv = phi i64 [ %indvars.iv.next, %.preheader.lr.ph.us ], [ 0, %.lr.ph.split.us.split ]
  %79 = getelementptr inbounds ptr, ptr %3, i64 %indvars.iv
  %80 = load ptr, ptr %79, align 8
  tail call void @llvm.memset.p0.i64(ptr align 1 %80, i8 %77, i64 %78, i1 false)
  %indvars.iv.next = add nuw nsw i64 %indvars.iv, 1
  %81 = load i32, ptr %20, align 4
  %82 = sext i32 %81 to i64
  %83 = icmp slt i64 %indvars.iv.next, %82
  br i1 %83, label %.preheader.lr.ph.us, label %._crit_edge68, !llvm.loop !19

._crit_edge68:                                    ; preds = %.preheader.lr.ph.us, %.preheader.lr.ph.us.us, %._crit_edge.split.us.split.us.us.us.us, %.lr.ph, %expand_right_edge.exit
  ret void
}